target datalayout = "e-m:e-p270:32:32-p271:32:32-p272:64:64-i64:64-i128:128-f80:128-n8:16:32:64-S128"
target triple = "x86_64-unknown-linux-gnu"

%"class.hermes::SourceMapGenerator" = type { %"class.std::vector", %"class.std::vector.0", %"class.std::vector.5", %"struct.hermes::StringSetVector", %"class.std::vector.10", %"class.llvh::DenseMap.15" }
%"class.std::vector" = type { %"struct.std::_Vector_base" }
%"struct.std::_Vector_base" = type { %"struct.std::_Vector_base<std::__cxx11::basic_string<char>, std::allocator<std::__cxx11::basic_string<char>>>::_Vector_impl" }
%"struct.std::_Vector_base<std::__cxx11::basic_string<char>, std::allocator<std::__cxx11::basic_string<char>>>::_Vector_impl" = type { %"struct.std::_Vector_base<std::__cxx11::basic_string<char>, std::allocator<std::__cxx11::basic_string<char>>>::_Vector_impl_data" }
%"struct.std::_Vector_base<std::__cxx11::basic_string<char>, std::allocator<std::__cxx11::basic_string<char>>>::_Vector_impl_data" = type { ptr, ptr, ptr }
%"class.std::vector.0" = type { %"struct.std::_Vector_base.1" }
%"struct.std::_Vector_base.1" = type { %"struct.std::_Vector_base<std::vector<hermes::SourceMap::Segment>, std::allocator<std::vector<hermes::SourceMap::Segment>>>::_Vector_impl" }
%"struct.std::_Vector_base<std::vector<hermes::SourceMap::Segment>, std::allocator<std::vector<hermes::SourceMap::Segment>>>::_Vector_impl" = type { %"struct.std::_Vector_base<std::vector<hermes::SourceMap::Segment>, std::allocator<std::vector<hermes::SourceMap::Segment>>>::_Vector_impl_data" }
%"struct.std::_Vector_base<std::vector<hermes::SourceMap::Segment>, std::allocator<std::vector<hermes::SourceMap::Segment>>>::_Vector_impl_data" = type { ptr, ptr, ptr }
%"class.std::vector.5" = type { %"struct.std::_Vector_base.6" }
%"struct.std::_Vector_base.6" = type { %"struct.std::_Vector_base<std::unique_ptr<hermes::SourceMap>, std::allocator<std::unique_ptr<hermes::SourceMap>>>::_Vector_impl" }
%"struct.std::_Vector_base<std::unique_ptr<hermes::SourceMap>, std::allocator<std::unique_ptr<hermes::SourceMap>>>::_Vector_impl" = type { %"struct.std::_Vector_base<std::unique_ptr<hermes::SourceMap>, std::allocator<std::unique_ptr<hermes::SourceMap>>>::_Vector_impl_data" }
%"struct.std::_Vector_base<std::unique_ptr<hermes::SourceMap>, std::allocator<std::unique_ptr<hermes::SourceMap>>>::_Vector_impl_data" = type { ptr, ptr, ptr }
%"struct.hermes::StringSetVector" = type { %"class.std::deque", %"class.llvh::DenseMap" }
%"class.std::deque" = type { %"class.std::_Deque_base" }
%"class.std::_Deque_base" = type { %"struct.std::_Deque_base<std::__cxx11::basic_string<char>, std::allocator<std::__cxx11::basic_string<char>>>::_Deque_impl" }
%"struct.std::_Deque_base<std::__cxx11::basic_string<char>, std::allocator<std::__cxx11::basic_string<char>>>::_Deque_impl" = type { %"struct.std::_Deque_base<std::__cxx11::basic_string<char>, std::allocator<std::__cxx11::basic_string<char>>>::_Deque_impl_data" }
%"struct.std::_Deque_base<std::__cxx11::basic_string<char>, std::allocator<std::__cxx11::basic_string<char>>>::_Deque_impl_data" = type { ptr, i64, %"struct.std::_Deque_iterator", %"struct.std::_Deque_iterator" }
%"struct.std::_Deque_iterator" = type { ptr, ptr, ptr, ptr }
%"class.llvh::DenseMap" = type <{ ptr, i32, i32, i32, [4 x i8] }>
%"class.std::vector.10" = type { %"struct.std::_Vector_base.11" }
%"struct.std::_Vector_base.11" = type { %"struct.std::_Vector_base<llvh::Optional<hermes::parser::JSONSharedValue>, std::allocator<llvh::Optional<hermes::parser::JSONSharedValue>>>::_Vector_impl" }
%"struct.std::_Vector_base<llvh::Optional<hermes::parser::JSONSharedValue>, std::allocator<llvh::Optional<hermes::parser::JSONSharedValue>>>::_Vector_impl" = type { %"struct.std::_Vector_base<llvh::Optional<hermes::parser::JSONSharedValue>, std::allocator<llvh::Optional<hermes::parser::JSONSharedValue>>>::_Vector_impl_data" }
%"struct.std::_Vector_base<llvh::Optional<hermes::parser::JSONSharedValue>, std::allocator<llvh::Optional<hermes::parser::JSONSharedValue>>>::_Vector_impl_data" = type { ptr, ptr, ptr }
%"class.llvh::DenseMap.15" = type <{ ptr, i32, i32, i32, [4 x i8] }>
%"class.__gnu_cxx::__normal_iterator.74" = type { ptr }

; Function Attrs: mustprogress nounwind uwtable
define linkonce_odr hidden noundef nonnull align 8 dereferenceable(8) ptr @_ZNK9__gnu_cxx17__normal_iteratorIPKSt10unique_ptrIN6hermes9SourceMapESt14default_deleteIS3_EESt6vectorIS6_SaIS6_EEE4baseEv(ptr noundef nonnull align 8 dereferenceable(8) %this) #0 comdat align 2 {
entry:
  %this.addr = alloca ptr, align 8
  store ptr %this, ptr %this.addr, align 8
  %this1 = load ptr, ptr %this.addr, align 8
  %_M_current = getelementptr inbounds %"class.__gnu_cxx::__normal_iterator.74", ptr %this1, i32 0, i32 0
  ret ptr %_M_current
}

; Function Attrs: mustprogress nounwind uwtable
define linkonce_odr hidden void @_ZN9__gnu_cxx17__normal_iteratorIPKSt10unique_ptrIN6hermes9SourceMapESt14default_deleteIS3_EESt6vectorIS6_SaIS6_EEEC2ERKS8_(ptr noundef nonnull align 8 dereferenceable(8) %this, ptr noundef nonnull align 8 dereferenceable(8) %__i) unnamed_addr #0 comdat align 2 {
entry:
  %this.addr = alloca ptr, align 8
  %__i.addr = alloca ptr, align 8
  store ptr %this, ptr %this.addr, align 8
  store ptr %__i, ptr %__i.addr, align 8
  %this1 = load ptr, ptr %this.addr, align 8
  %_M_current = getelementptr inbounds %"class.__gnu_cxx::__normal_iterator.74", ptr %this1, i32 0, i32 0
  %0 = load ptr, ptr %__i.addr, align 8
  %1 = load ptr, ptr %0, align 8
  store ptr %1, ptr %_M_current, align 8
  ret void
}

; Function Attrs: mustprogress nounwind uwtable
define linkonce_odr hidden noundef zeroext i1 @_ZN9__gnu_cxxeqIPKSt10unique_ptrIN6hermes9SourceMapESt14default_deleteIS3_EESt6vectorIS6_SaIS6_EEEEbRKNS_17__normal_iteratorIT_T0_EESH_(ptr noundef nonnull align 8 dereferenceable(8) %__lhs, ptr noundef nonnull align 8 dereferenceable(8) %__rhs) #0 comdat {
entry:
  %__lhs.addr = alloca ptr, align 8
  %__rhs.addr = alloca ptr, align 8
  store ptr %__lhs, ptr %__lhs.addr, align 8
  store ptr %__rhs, ptr %__rhs.addr, align 8
  %0 = load ptr, ptr %__lhs.addr, align 8
  %call = call noundef nonnull align 8 dereferenceable(8) ptr @_ZNK9__gnu_cxx17__normal_iteratorIPKSt10unique_ptrIN6hermes9SourceMapESt14default_deleteIS3_EESt6vectorIS6_SaIS6_EEE4baseEv(ptr noundef nonnull align 8 dereferenceable(8) %0) #9
  %1 = load ptr, ptr %call, align 8
  %2 = load ptr, ptr %__rhs.addr, align 8
  %call1 = call noundef nonnull align 8 dereferenceable(8) ptr @_ZNK9__gnu_cxx17__normal_iteratorIPKSt10unique_ptrIN6hermes9SourceMapESt14default_deleteIS3_EESt6vectorIS6_SaIS6_EEE4baseEv(ptr noundef nonnull align 8 dereferenceable(8) %2) #9
  %3 = load ptr, ptr %call1, align 8
  %cmp = icmp eq ptr %1, %3
  ret i1 %cmp
}

; Function Attrs: mustprogress nounwind uwtable
define linkonce_odr hidden ptr @_ZNKSt6vectorISt10unique_ptrIN6hermes9SourceMapESt14default_deleteIS2_EESaIS5_EE3endEv(ptr noundef nonnull align 8 dereferenceable(24) %this) #0 comdat align 2 {
entry:
  %retval = alloca %"class.__gnu_cxx::__normal_iterator.74", align 8
  %this.addr = alloca ptr, align 8
  store ptr %this, ptr %this.addr, align 8
  %this1 = load ptr, ptr %this.addr, align 8
  %_M_impl = getelementptr inbounds %"struct.std::_Vector_base.6", ptr %this1, i32 0, i32 0
  %_M_finish = getelementptr inbounds %"struct.std::_Vector_base<std::unique_ptr<hermes::SourceMap>, std::allocator<std::unique_ptr<hermes::SourceMap>>>::_Vector_impl_data", ptr %_M_impl, i32 0, i32 1
  call void @_ZN9__gnu_cxx17__normal_iteratorIPKSt10unique_ptrIN6hermes9SourceMapESt14default_deleteIS3_EESt6vectorIS6_SaIS6_EEEC2ERKS8_(ptr noundef nonnull align 8 dereferenceable(8) %retval, ptr noundef nonnull align 8 dereferenceable(8) %_M_finish) #9
  %coerce.dive = getelementptr inbounds %"class.__gnu_cxx::__normal_iterator.74", ptr %retval, i32 0, i32 0
  %0 = load ptr, ptr %coerce.dive, align 8
  ret ptr %0
}

; Function Attrs: mustprogress nounwind uwtable
define linkonce_odr hidden ptr @_ZNKSt6vectorISt10unique_ptrIN6hermes9SourceMapESt14default_deleteIS2_EESaIS5_EE5beginEv(ptr noundef nonnull align 8 dereferenceable(24) %this) #0 comdat align 2 {
entry:
  %retval = alloca %"class.__gnu_cxx::__normal_iterator.74", align 8
  %this.addr = alloca ptr, align 8
  store ptr %this, ptr %this.addr, align 8
  %this1 = load ptr, ptr %this.addr, align 8
  %_M_impl = getelementptr inbounds %"struct.std::_Vector_base.6", ptr %this1, i32 0, i32 0
  %_M_start = getelementptr inbounds %"struct.std::_Vector_base<std::unique_ptr<hermes::SourceMap>, std::allocator<std::unique_ptr<hermes::SourceMap>>>::_Vector_impl_data", ptr %_M_impl, i32 0, i32 0
  call void @_ZN9__gnu_cxx17__normal_iteratorIPKSt10unique_ptrIN6hermes9SourceMapESt14default_deleteIS3_EESt6vectorIS6_SaIS6_EEEC2ERKS8_(ptr noundef nonnull align 8 dereferenceable(8) %retval, ptr noundef nonnull align 8 dereferenceable(8) %_M_start) #9
  %coerce.dive = getelementptr inbounds %"class.__gnu_cxx::__normal_iterator.74", ptr %retval, i32 0, i32 0
  %0 = load ptr, ptr %coerce.dive, align 8
  ret ptr %0
}

; Function Attrs: mustprogress nounwind uwtable
define linkonce_odr hidden noundef zeroext i1 @_ZNKSt6vectorISt10unique_ptrIN6hermes9SourceMapESt14default_deleteIS2_EESaIS5_EE5emptyEv(ptr noundef nonnull align 8 dereferenceable(24) %this) #0 comdat align 2 {
entry:
  %this.addr = alloca ptr, align 8
  %ref.tmp = alloca %"class.__gnu_cxx::__normal_iterator.74", align 8
  %ref.tmp2 = alloca %"class.__gnu_cxx::__normal_iterator.74", align 8
  store ptr %this, ptr %this.addr, align 8
  %this1 = load ptr, ptr %this.addr, align 8
  %call = call ptr @_ZNKSt6vectorISt10unique_ptrIN6hermes9SourceMapESt14default_deleteIS2_EESaIS5_EE5beginEv(ptr noundef nonnull align 8 dereferenceable(24) %this1) #9
  %coerce.dive = getelementptr inbounds %"class.__gnu_cxx::__normal_iterator.74", ptr %ref.tmp, i32 0, i32 0
  store ptr %call, ptr %coerce.dive, align 8
  %call3 = call ptr @_ZNKSt6vectorISt10unique_ptrIN6hermes9SourceMapESt14default_deleteIS2_EESaIS5_EE3endEv(ptr noundef nonnull align 8 dereferenceable(24) %this1) #9
  %coerce.dive4 = getelementptr inbounds %"class.__gnu_cxx::__normal_iterator.74", ptr %ref.tmp2, i32 0, i32 0
  store ptr %call3, ptr %coerce.dive4, align 8
  %call5 = call noundef zeroext i1 @_ZN9__gnu_cxxeqIPKSt10unique_ptrIN6hermes9SourceMapESt14default_deleteIS3_EESt6vectorIS6_SaIS6_EEEEbRKNS_17__normal_iteratorIT_T0_EESH_(ptr noundef nonnull align 8 dereferenceable(8) %ref.tmp, ptr noundef nonnull align 8 dereferenceable(8) %ref.tmp2) #9
  ret i1 %call5
}

; Function Attrs: mustprogress nounwind uwtable
define hidden void @_ZNK6hermes18SourceMapGenerator12outputAsJSONERN4llvh11raw_ostreamE(ptr noundef nonnull align 8 dereferenceable(224) %this, ptr noundef nonnull align 8 dereferenceable(36) %OS) #0 align 2 {
entry:
  %this.addr = alloca ptr, align 8
  %OS.addr = alloca ptr, align 8
  %ref.tmp = alloca %"class.hermes::SourceMapGenerator", align 8
  store ptr %this, ptr %this.addr, align 8
  store ptr %OS, ptr %OS.addr, align 8
  %this1 = load ptr, ptr %this.addr, align 8
  %inputSourceMaps_ = getelementptr inbounds %"class.hermes::SourceMapGenerator", ptr %this1, i32 0, i32 2
  %call = call noundef zeroext i1 @_ZNKSt6vectorISt10unique_ptrIN6hermes9SourceMapESt14default_deleteIS2_EESaIS5_EE5emptyEv(ptr noundef nonnull align 8 dereferenceable(24) %inputSourceMaps_) #9
  br i1 %call, label %if.then, label %if.else

if.then:                                          ; preds = %entry
  %0 = load ptr, ptr %OS.addr, align 8
  call void @_ZNK6hermes18SourceMapGenerator16outputAsJSONImplERN4llvh11raw_ostreamE(ptr noundef nonnull align 8 dereferenceable(224) %this1, ptr noundef nonnull align 8 dereferenceable(36) %0)
  br label %if.end

if.else:                                          ; preds = %entry
  call void @_ZNK6hermes18SourceMapGenerator25mergedWithInputSourceMapsEv(ptr sret(%"class.hermes::SourceMapGenerator") align 8 %ref.tmp, ptr noundef nonnull align 8 dereferenceable(224) %this1)
  %1 = load ptr, ptr %OS.addr, align 8
  call void @_ZNK6hermes18SourceMapGenerator16outputAsJSONImplERN4llvh11raw_ostreamE(ptr noundef nonnull align 8 dereferenceable(224) %ref.tmp, ptr noundef nonnull align 8 dereferenceable(36) %1)
  call void @_ZN6hermes18SourceMapGeneratorD2Ev(ptr noundef nonnull align 8 dereferenceable(224) %ref.tmp) #9
  br label %if.end

if.end:                                           ; preds = %if.else, %if.then
  ret void
}