; Function Attrs: mustprogress nounwind uwtable
define hidden void @_ZNK6hermes18SourceMapGenerator12outputAsJSONERN4llvh11raw_ostreamE(ptr noundef nonnull align 8 dereferenceable(224) %this, ptr noundef nonnull align 8 dereferenceable(36) %OS) local_unnamed_addr #0 align 2 {
entry:
  %ref.tmp = alloca %"class.hermes::SourceMapGenerator", align 8
  %inputSourceMaps_ = getelementptr inbounds i8, ptr %this, i64 48
  %0 = load ptr, ptr %inputSourceMaps_, align 8
  %_M_finish.i.i = getelementptr inbounds i8, ptr %this, i64 56
  %1 = load ptr, ptr %_M_finish.i.i, align 8
  %cmp.i.i = icmp eq ptr %0, %1
  br i1 %cmp.i.i, label %if.then, label %if.else

if.then:                                          ; preds = %entry
  tail call void @_ZNK6hermes18SourceMapGenerator16outputAsJSONImplERN4llvh11raw_ostreamE(ptr noundef nonnull align 8 dereferenceable(224) %this, ptr noundef nonnull align 8 dereferenceable(36) %OS)
  br label %if.end

if.else:                                          ; preds = %entry
  call void @_ZNK6hermes18SourceMapGenerator25mergedWithInputSourceMapsEv(ptr nonnull sret(%"class.hermes::SourceMapGenerator") align 8 %ref.tmp, ptr noundef nonnull align 8 dereferenceable(224) %this)
  call void @_ZNK6hermes18SourceMapGenerator16outputAsJSONImplERN4llvh11raw_ostreamE(ptr noundef nonnull align 8 dereferenceable(224) %ref.tmp, ptr noundef nonnull align 8 dereferenceable(36) %OS)
  call void @_ZN6hermes18SourceMapGeneratorD2Ev(ptr noundef nonnull align 8 dereferenceable(224) %ref.tmp) #16
  br label %if.end

if.end:                                           ; preds = %if.else, %if.then
  ret void
}